(ireportlab.graphics.shapes
Drawing
p1
(dp2
S'_attrMap'
p3
(ireportlab.lib.attrmap
AttrMap
p4
(dp5
S'data'
p6
(dp7
S'overprintMask'
p8
(ireportlab.lib.attrmap
AttrMapValue
p9
(dp10
S'_advancedUsage'
p11
I1
sS'_initial'
p12
NsS'validate'
p13
(ireportlab.lib.validators
_isBoolean
p14
(dp15
bsS'desc'
p16
S'overprinting for ordinary CMYK'
p17
sbsS'hAlign'
p18
(ireportlab.lib.attrmap
AttrMapValue
p19
(dp20
g11
I0
sg12
Nsg13
(ireportlab.lib.validators
OneOf
p21
(dp22
S'_enum'
p23
(S'LEFT'
p24
S'RIGHT'
p25
S'CENTER'
p26
S'CENTRE'
p27
tp28
sbsg16
S'Horizontal alignment within parent document'
p29
sbsS'fillOverprint'
p30
(ireportlab.lib.attrmap
AttrMapValue
p31
(dp32
g11
I1
sg12
Nsg13
g14
sg16
S'Turn on fill overprinting'
p33
sbsS'transform'
p34
(ireportlab.lib.attrmap
AttrMapValue
p35
(dp36
g11
I1
sg12
Nsg13
(ireportlab.lib.validators
_isTransform
p37
(dp38
bsg16
S'Coordinate transformation to apply'
p39
sbsS'renderScale'
p40
(ireportlab.lib.attrmap
AttrMapValue
p41
(dp42
g11
I0
sg12
Nsg13
(ireportlab.lib.validators
_isNumber
p43
(dp44
bsg16
S'Global scaling for rendering'
p45
sbsS'canv'
p46
(ireportlab.lib.attrmap
AttrMapValue
p47
(dp48
g11
I0
sg12
Nsg13
(ireportlab.lib.validators
_isAnything
p49
(dp50
bsg16
NsbsS'width'
p51
(ireportlab.lib.attrmap
AttrMapValue
p52
(dp53
g11
I0
sg12
Nsg13
g43
sg16
S'Drawing width in points.'
p54
sbsS'background'
p55
(ireportlab.lib.attrmap
AttrMapValue
p56
(dp57
g11
I0
sg12
Nsg13
(ireportlab.lib.validators
_isValidChildOrNone
p58
(dp59
bsg16
S'Background widget for the drawing e.g. Rect(0,0,width,height)'
p60
sbsS'vAlign'
p61
(ireportlab.lib.attrmap
AttrMapValue
p62
(dp63
g11
I0
sg12
Nsg13
(ireportlab.lib.validators
OneOf
p64
(dp65
g23
(S'TOP'
p66
S'BOTTOM'
p67
g26
g27
tp68
sbsg16
S'Vertical alignment within parent document'
p69
sbsS'height'
p70
(ireportlab.lib.attrmap
AttrMapValue
p71
(dp72
g11
I0
sg12
Nsg13
g43
sg16
S'Drawing height in points.'
p73
sbsS'strokeOverprint'
p74
(ireportlab.lib.attrmap
AttrMapValue
p75
(dp76
g11
I0
sg12
Nsg13
g14
sg16
S'Turn on stroke overprinting'
p77
sbsS'contents'
p78
(ireportlab.lib.attrmap
AttrMapValue
p79
(dp80
g11
I0
sg12
Nsg13
(ireportlab.lib.validators
_isListOfShapes
p81
(dp82
bsg16
S'Contained drawable elements'
p83
sbssbsg18
g24
sg34
(I1
I0
I0
I1
I0
I0
tp84
sg70
F10
sg51
F10
sg55
Nsg61
g67
sg40
F1
sg78
(lp85
(ireportlab.graphics.shapes
Group
p86
(dp87
g3
(ireportlab.lib.attrmap
AttrMap
p88
(dp89
g6
(dp90
g30
g31
sg74
g75
sg8
g9
sg78
g79
sg34
g35
ssbsg34
(I1
I0
I0
I-1
F0
F10
tp91
sg78
(lp92
(ireportlab.graphics.shapes
Group
p93
(dp94
g3
(ireportlab.lib.attrmap
AttrMap
p95
(dp96
g6
(dp97
g30
g31
sg74
g75
sg8
g9
sg78
g79
sg34
g35
ssbsg34
g84
sg78
(lp98
sba(ireportlab.graphics.shapes
Group
p99
(dp100
g3
(ireportlab.lib.attrmap
AttrMap
p101
(dp102
g6
(dp103
g30
g31
sg74
g75
sg8
g9
sg78
g79
sg34
g35
ssbsg34
(F0.20000701000000001
I0
I0
F0.19999114000000001
F-37.883063999999997
F-56.028641
tp104
sg78
(lp105
(ireportlab.graphics.shapes
Group
p106
(dp107
g3
(ireportlab.lib.attrmap
AttrMap
p108
(dp109
g6
(dp110
g30
g31
sg74
g75
sg8
g9
sg78
g79
sg34
g35
ssbsg34
g84
sg78
(lp111
(ireportlab.graphics.shapes
Path
p112
(dp113
S'strokeDashArray'
p114
NsS'fillOpacity'
p115
NsS'strokeWidth'
p116
F0.77044480999999998
sS'strokeMiterLimit'
p117
I0
sS'operators'
p118
(lp119
I0
aI1
aI0
aI2
aI3
asS'strokeOpacity'
p120
NsS'strokeLineJoin'
p121
I0
sS'points'
p122
(lp123
F239.02346
aF280.54304000000002
aF189.79390000000001
aF280.54304000000002
aF239.02346
aF329.63427999999999
aF239.02346
aF329.63427999999999
aF280.99813
aF334.89404999999999
aF288.25301999999999
aF280.54304000000002
asS'fillColor'
p124
NsS'strokeColor'
p125
(ireportlab.lib.colors
Color
p126
(dp127
S'blue'
p128
F0
sS'alpha'
p129
I1
sS'green'
p130
F0
sS'red'
p131
F0
sbsS'isClipPath'
p132
I0
sS'strokeLineCap'
p133
I0
sbasbasbasbasb.