(ireportlab.graphics.shapes
Path
p1
(dp2
S'strokeDashArray'
p3
NsS'fillOpacity'
p4
NsS'strokeWidth'
p5
F0.77044480999999998
sS'strokeMiterLimit'
p6
I0
sS'operators'
p7
(lp8
I0
aI1
aI0
aI2
aI3
asS'strokeOpacity'
p9
NsS'strokeLineJoin'
p10
I0
sS'points'
p11
(lp12
F239.02346
aF280.54304000000002
aF189.79390000000001
aF280.54304000000002
aF239.02346
aF329.63427999999999
aF239.02346
aF329.63427999999999
aF280.99813
aF334.89404999999999
aF288.25301999999999
aF280.54304000000002
asS'fillColor'
p13
NsS'strokeColor'
p14
(ireportlab.lib.colors
Color
p15
(dp16
S'blue'
p17
F0
sS'alpha'
p18
I1
sS'green'
p19
F0
sS'red'
p20
F0
sbsS'isClipPath'
p21
I0
sS'strokeLineCap'
p22
I0
sb.